; Function Attrs: mustprogress nounwind uwtable
define hidden noundef ptr @_ZN7PhiNode11is_cmove_idEP14PhaseTransformi(ptr nocapture noundef nonnull readonly align 8 dereferenceable(88) %0, ptr noundef %1, i32 noundef %2) local_unnamed_addr #2 align 2 {
  %4 = getelementptr inbounds i8, ptr %0, i64 8
  %5 = load ptr, ptr %4, align 8
  %6 = load ptr, ptr %5, align 8
  %7 = getelementptr inbounds i8, ptr %6, i64 8
  %8 = load ptr, ptr %7, align 8
  %9 = getelementptr inbounds i8, ptr %8, i64 8
  %10 = load ptr, ptr %9, align 8
  %11 = getelementptr inbounds i8, ptr %10, i64 8
  %12 = load ptr, ptr %11, align 8
  %13 = load ptr, ptr %12, align 8
  %14 = getelementptr inbounds i8, ptr %13, i64 8
  %15 = load ptr, ptr %14, align 8
  %16 = getelementptr inbounds i8, ptr %15, i64 8
  %17 = load ptr, ptr %16, align 8
  %18 = getelementptr inbounds i8, ptr %17, i64 8
  %19 = load ptr, ptr %18, align 8
  %20 = getelementptr inbounds i8, ptr %19, i64 8
  %21 = load ptr, ptr %20, align 8
  %22 = zext i32 %2 to i64
  %23 = getelementptr inbounds ptr, ptr %5, i64 %22
  %24 = load ptr, ptr %23, align 8
  %25 = sub nsw i32 3, %2
  %26 = zext i32 %25 to i64
  %27 = getelementptr inbounds ptr, ptr %5, i64 %26
  %28 = load ptr, ptr %27, align 8
  %29 = tail call noundef ptr @_ZN9CMoveNode11is_cmove_idEP14PhaseTransformP4NodeS3_S3_P8BoolNode(ptr noundef %1, ptr noundef %21, ptr noundef %24, ptr noundef %28, ptr noundef nonnull %17) #10
  %30 = icmp eq ptr %29, null
  br i1 %30, label %48, label %31

31:                                               ; preds = %3
  %32 = getelementptr inbounds i8, ptr %29, i64 8
  %33 = load ptr, ptr %32, align 8
  %34 = load ptr, ptr %33, align 8
  %.not = icmp eq ptr %34, null
  br i1 %.not, label %48, label %35

35:                                               ; preds = %31
  %36 = getelementptr inbounds i8, ptr %34, i64 8
  %37 = load ptr, ptr %36, align 8
  %38 = load ptr, ptr %37, align 8
  %39 = icmp eq ptr %38, %13
  br i1 %39, label %40, label %48

40:                                               ; preds = %35
  %41 = getelementptr inbounds i8, ptr %29, i64 44
  %42 = load i32, ptr %41, align 4
  %43 = and i32 %42, 31
  %44 = icmp eq i32 %43, 20
  br i1 %44, label %45, label %48

45:                                               ; preds = %40
  %46 = getelementptr inbounds i8, ptr %33, i64 8
  %47 = load ptr, ptr %46, align 8
  br label %48

48:                                               ; preds = %31, %35, %40, %3, %45
  %.0 = phi ptr [ %47, %45 ], [ null, %3 ], [ null, %40 ], [ %29, %35 ], [ %29, %31 ]
  ret ptr %.0
}